target datalayout = "e-m:e-p270:32:32-p271:32:32-p272:64:64-i64:64-i128:128-f80:128-n8:16:32:64-S128"
target triple = "x86_64-pc-linux-gnu"

%struct.darktable_t = type { %struct.dt_codepath_t, i32, i32, ptr, ptr, ptr, ptr, ptr, ptr, ptr, ptr, ptr, ptr, ptr, ptr, ptr, ptr, ptr, ptr, ptr, ptr, ptr, ptr, ptr, ptr, ptr, ptr, ptr, ptr, ptr, [64 x %struct.dt_pthread_mutex_t], %struct.dt_pthread_mutex_t, %struct.dt_pthread_mutex_t, %struct.dt_pthread_mutex_t, %struct.dt_pthread_mutex_t, %struct.dt_pthread_mutex_t, ptr, ptr, ptr, ptr, ptr, ptr, ptr, ptr, ptr, ptr, ptr, ptr, ptr, %struct.dt_lua_state_t, ptr, double, ptr, i32, [47 x i32], i32, i32, ptr, ptr, %struct.dt_sys_resources_t, %struct.dt_backthumb_t, %struct.dt_gimp_t }
%struct.dt_codepath_t = type { i8, [3 x i8] }
%struct.dt_pthread_mutex_t = type { %union.pthread_mutex_t }
%union.pthread_mutex_t = type { %struct.__pthread_mutex_s }
%struct.__pthread_mutex_s = type { i32, i32, i32, i32, i32, i16, i16, %struct.__pthread_internal_list }
%struct.__pthread_internal_list = type { ptr, ptr }
%struct.dt_lua_state_t = type { i32 }
%struct.dt_sys_resources_t = type { i64, i64, ptr, ptr, i32 }
%struct.dt_backthumb_t = type { double, double, i32, i32, i32, i32 }
%struct.dt_gimp_t = type { i32, ptr, ptr, i32, i32 }
%struct.dt_action_t = type { i32, ptr, ptr, ptr, ptr, ptr }
%struct.dt_control_t = type { i32, ptr, %struct.dt_action_t, %struct.dt_action_t, %struct.dt_action_t, %struct.dt_action_t, %struct.dt_action_t, %struct.dt_action_t, %struct.dt_action_t, %struct.dt_action_t, %struct.dt_action_t, %struct.dt_action_t, %struct.dt_action_t, ptr, ptr, ptr, i32, ptr, i32, i32, ptr, ptr, [256 x i8], i32, double, i32, i32, i64, i32, i32, i32, double, double, i32, i32, i32, i32, i32, i32, [8 x [1000 x i8]], i32, i32, %struct.dt_pthread_mutex_t, i32, i32, [2 x [300 x i8]], i32, i32, %struct.dt_pthread_mutex_t, %struct.dt_pthread_mutex_t, %struct.dt_pthread_mutex_t, double, i32, i32, i32, %struct.dt_pthread_mutex_t, %struct.dt_pthread_mutex_t, %union.pthread_cond_t, i32, ptr, i64, i64, ptr, [5 x ptr], [5 x i64], %struct.dt_pthread_mutex_t, [3 x ptr], [3 x i8], [3 x i64], %struct.anon.0, %struct.anon.2 }
%union.pthread_cond_t = type { %struct.__pthread_cond_s }
%struct.__pthread_cond_s = type { %union.__atomic_wide_counter, %union.__atomic_wide_counter, [2 x i32], [2 x i32], i32, i32, [2 x i32] }
%union.__atomic_wide_counter = type { i64 }
%struct.anon.0 = type { ptr, i64, i64, double, %struct.dt_pthread_mutex_t, %struct.anon.1 }
%struct.anon.1 = type { ptr, ptr, ptr, ptr, ptr, ptr }
%struct.anon.2 = type { %struct.anon.3 }
%struct.anon.3 = type { ptr, ptr }
%struct.__va_list_tag = type { i32, i32, ptr, ptr }

@darktable = external global %struct.darktable_t, align 8

; Function Attrs: inlinehint nounwind uwtable
define internal i32 @dt_pthread_mutex_unlock(ptr noundef %0) #4 {
  %2 = alloca ptr, align 8
  store ptr %0, ptr %2, align 8, !tbaa !118
  %3 = load ptr, ptr %2, align 8, !tbaa !118
  %4 = getelementptr inbounds nuw %struct.dt_pthread_mutex_t, ptr %3, i32 0, i32 0
  %5 = call i32 @pthread_mutex_unlock(ptr noundef %4) #10
  ret i32 %5
}

; Function Attrs: inlinehint nounwind uwtable
define internal i32 @dt_pthread_mutex_lock(ptr noundef %0) #4 {
  %2 = alloca ptr, align 8
  store ptr %0, ptr %2, align 8, !tbaa !118
  %3 = load ptr, ptr %2, align 8, !tbaa !118
  %4 = getelementptr inbounds nuw %struct.dt_pthread_mutex_t, ptr %3, i32 0, i32 0
  %5 = call i32 @pthread_mutex_lock(ptr noundef %4) #10
  ret i32 %5
}

; Function Attrs: nounwind uwtable
define void @dt_control_log(ptr noundef %0, ...) #0 {
  %2 = alloca ptr, align 8
  %3 = alloca ptr, align 8
  %4 = alloca [1 x %struct.__va_list_tag], align 16
  %5 = alloca ptr, align 8
  %6 = alloca i32, align 4
  %7 = alloca i32, align 4
  %8 = alloca i32, align 4
  store ptr %0, ptr %2, align 8, !tbaa !83
  call void @llvm.lifetime.start.p0(i64 8, ptr %3) #10
  %9 = load ptr, ptr getelementptr inbounds nuw (%struct.darktable_t, ptr @darktable, i32 0, i32 12), align 8, !tbaa !120
  store ptr %9, ptr %3, align 8, !tbaa !73
  %10 = load ptr, ptr %3, align 8, !tbaa !73
  %11 = getelementptr inbounds nuw %struct.dt_control_t, ptr %10, i32 0, i32 42
  %12 = call i32 @dt_pthread_mutex_lock(ptr noundef %11)
  call void @llvm.lifetime.start.p0(i64 24, ptr %4) #10
  %13 = getelementptr inbounds [1 x %struct.__va_list_tag], ptr %4, i64 0, i64 0
  call void @llvm.va_start.p0(ptr %13)
  call void @llvm.lifetime.start.p0(i64 8, ptr %5) #10
  %14 = load ptr, ptr %2, align 8, !tbaa !83
  %15 = getelementptr inbounds [1 x %struct.__va_list_tag], ptr %4, i64 0, i64 0
  %16 = call ptr @g_markup_vprintf_escaped(ptr noundef %14, ptr noundef %15)
  store ptr %16, ptr %5, align 8, !tbaa !83
  call void @llvm.lifetime.start.p0(i64 4, ptr %6) #10
  %17 = load ptr, ptr %5, align 8, !tbaa !83
  %18 = call i64 @strlen(ptr noundef %17) #12
  %19 = trunc i64 %18 to i32
  store i32 %19, ptr %6, align 4, !tbaa !10
  call void @llvm.lifetime.start.p0(i64 4, ptr %7) #10
  %20 = load ptr, ptr %3, align 8, !tbaa !73
  %21 = getelementptr inbounds nuw %struct.dt_control_t, ptr %20, i32 0, i32 37
  %22 = load i32, ptr %21, align 8, !tbaa !107
  %23 = sub nsw i32 %22, 1
  %24 = and i32 %23, 7
  store i32 %24, ptr %7, align 4, !tbaa !10
  call void @llvm.lifetime.start.p0(i64 4, ptr %8) #10
  %25 = load ptr, ptr %3, align 8, !tbaa !73
  %26 = getelementptr inbounds nuw %struct.dt_control_t, ptr %25, i32 0, i32 40
  %27 = load i32, ptr %26, align 8, !tbaa !109
  store i32 %27, ptr %8, align 4, !tbaa !10
  %28 = load i32, ptr %8, align 4, !tbaa !10
  %29 = icmp ne i32 %28, 0
  br i1 %29, label %30, label %40

30:                                               ; preds = %1
  %31 = load ptr, ptr %5, align 8, !tbaa !83
  %32 = load ptr, ptr %3, align 8, !tbaa !73
  %33 = getelementptr inbounds nuw %struct.dt_control_t, ptr %32, i32 0, i32 39
  %34 = load i32, ptr %7, align 4, !tbaa !10
  %35 = sext i32 %34 to i64
  %36 = getelementptr inbounds [8 x [1000 x i8]], ptr %33, i64 0, i64 %35
  %37 = getelementptr inbounds [1000 x i8], ptr %36, i64 0, i64 0
  %38 = call i32 @g_strcmp0(ptr noundef %31, ptr noundef %37)
  %39 = icmp ne i32 %38, 0
  br i1 %39, label %40, label %56

40:                                               ; preds = %30, %1
  %41 = load ptr, ptr %3, align 8, !tbaa !73
  %42 = getelementptr inbounds nuw %struct.dt_control_t, ptr %41, i32 0, i32 39
  %43 = load ptr, ptr %3, align 8, !tbaa !73
  %44 = getelementptr inbounds nuw %struct.dt_control_t, ptr %43, i32 0, i32 37
  %45 = load i32, ptr %44, align 8, !tbaa !107
  %46 = and i32 %45, 7
  %47 = sext i32 %46 to i64
  %48 = getelementptr inbounds [8 x [1000 x i8]], ptr %42, i64 0, i64 %47
  %49 = getelementptr inbounds [1000 x i8], ptr %48, i64 0, i64 0
  %50 = load ptr, ptr %5, align 8, !tbaa !83
  %51 = call i64 @g_strlcpy(ptr noundef %49, ptr noundef %50, i64 noundef 1000)
  %52 = load ptr, ptr %3, align 8, !tbaa !73
  %53 = getelementptr inbounds nuw %struct.dt_control_t, ptr %52, i32 0, i32 37
  %54 = load i32, ptr %53, align 8, !tbaa !107
  %55 = add nsw i32 %54, 1
  store i32 %55, ptr %53, align 8, !tbaa !107
  br label %56

56:                                               ; preds = %40, %30
  %57 = load ptr, ptr %5, align 8, !tbaa !83
  call void @g_free(ptr noundef %57)
  %58 = getelementptr inbounds [1 x %struct.__va_list_tag], ptr %4, i64 0, i64 0
  call void @llvm.va_end.p0(ptr %58)
  %59 = load i32, ptr %8, align 4, !tbaa !10
  %60 = icmp ne i32 %59, 0
  br i1 %60, label %61, label %66

61:                                               ; preds = %56
  %62 = load ptr, ptr %3, align 8, !tbaa !73
  %63 = getelementptr inbounds nuw %struct.dt_control_t, ptr %62, i32 0, i32 40
  %64 = load i32, ptr %63, align 8, !tbaa !109
  %65 = call i32 @g_source_remove(i32 noundef %64)
  br label %66

66:                                               ; preds = %61, %56
  %67 = load i32, ptr %6, align 4, !tbaa !10
  %68 = sdiv i32 %67, 40
  %69 = mul nsw i32 1000, %68
  %70 = add nsw i32 5000, %69
  %71 = call i32 @g_timeout_add(i32 noundef %70, ptr noundef @_dt_ctl_log_message_timeout_callback, ptr noundef null)
  %72 = load ptr, ptr %3, align 8, !tbaa !73
  %73 = getelementptr inbounds nuw %struct.dt_control_t, ptr %72, i32 0, i32 40
  store i32 %71, ptr %73, align 8, !tbaa !109
  %74 = load ptr, ptr %3, align 8, !tbaa !73
  %75 = getelementptr inbounds nuw %struct.dt_control_t, ptr %74, i32 0, i32 42
  %76 = call i32 @dt_pthread_mutex_unlock(ptr noundef %75)
  %77 = call i32 @g_idle_add(ptr noundef @_redraw_center, ptr noundef null)
  call void @llvm.lifetime.end.p0(i64 4, ptr %8) #10
  call void @llvm.lifetime.end.p0(i64 4, ptr %7) #10
  call void @llvm.lifetime.end.p0(i64 4, ptr %6) #10
  call void @llvm.lifetime.end.p0(i64 8, ptr %5) #10
  call void @llvm.lifetime.end.p0(i64 24, ptr %4) #10
  call void @llvm.lifetime.end.p0(i64 8, ptr %3) #10
  ret void
}