; Function Attrs: nounwind uwtable
define void @dt_control_log(ptr noundef %0, ...) local_unnamed_addr #0 {
  %2 = alloca [1 x %struct.__va_list_tag], align 16
  %3 = load ptr, ptr getelementptr inbounds nuw (i8, ptr @darktable, i64 88), align 8, !tbaa !107
  %4 = getelementptr inbounds nuw i8, ptr %3, i64 8960
  %5 = tail call i32 @pthread_mutex_lock(ptr noundef nonnull %4) #13
  call void @llvm.lifetime.start.p0(i64 24, ptr nonnull %2) #13
  call void @llvm.va_start.p0(ptr nonnull %2)
  %6 = call ptr @g_markup_vprintf_escaped(ptr noundef %0, ptr noundef nonnull %2) #13
  %7 = call i64 @strlen(ptr noundef nonnull dereferenceable(1) %6) #15
  %8 = getelementptr inbounds nuw i8, ptr %3, i64 944
  %9 = getelementptr inbounds nuw i8, ptr %3, i64 8952
  %10 = load i32, ptr %9, align 8, !tbaa !98
  %.not = icmp eq i32 %10, 0
  br i1 %.not, label %19, label %11

11:                                               ; preds = %1
  %12 = load i32, ptr %8, align 8, !tbaa !96
  %13 = add i32 %12, 7
  %14 = and i32 %13, 7
  %15 = getelementptr inbounds nuw i8, ptr %3, i64 952
  %16 = zext nneg i32 %14 to i64
  %17 = getelementptr inbounds nuw [8 x [1000 x i8]], ptr %15, i64 0, i64 %16
  %18 = call i32 @g_strcmp0(ptr noundef nonnull %6, ptr noundef nonnull %17) #13
  %.not18 = icmp eq i32 %18, 0
  br i1 %.not18, label %.thread, label %19

.thread:                                          ; preds = %11
  call void @g_free(ptr noundef nonnull %6) #13
  call void @llvm.va_end.p0(ptr nonnull %2)
  br label %28

19:                                               ; preds = %1, %11
  %20 = getelementptr inbounds nuw i8, ptr %3, i64 952
  %21 = load i32, ptr %8, align 8, !tbaa !96
  %22 = and i32 %21, 7
  %23 = zext nneg i32 %22 to i64
  %24 = getelementptr inbounds nuw [8 x [1000 x i8]], ptr %20, i64 0, i64 %23
  %25 = call i64 @g_strlcpy(ptr noundef nonnull %24, ptr noundef nonnull %6, i64 noundef 1000) #13
  %26 = load i32, ptr %8, align 8, !tbaa !96
  %27 = add nsw i32 %26, 1
  store i32 %27, ptr %8, align 8, !tbaa !96
  call void @g_free(ptr noundef nonnull %6) #13
  call void @llvm.va_end.p0(ptr nonnull %2)
  br i1 %.not, label %31, label %28

28:                                               ; preds = %.thread, %19
  %29 = load i32, ptr %9, align 8, !tbaa !98
  %30 = call i32 @g_source_remove(i32 noundef %29) #13
  br label %31

31:                                               ; preds = %28, %19
  %32 = trunc i64 %7 to i32
  %33 = sdiv i32 %32, 40
  %34 = mul nsw i32 %33, 1000
  %35 = add nsw i32 %34, 5000
  %36 = call i32 @g_timeout_add(i32 noundef %35, ptr noundef nonnull @_dt_ctl_log_message_timeout_callback, ptr noundef null) #13
  store i32 %36, ptr %9, align 8, !tbaa !98
  %37 = call i32 @pthread_mutex_unlock(ptr noundef nonnull %4) #13
  %38 = call i32 @g_idle_add(ptr noundef nonnull @_redraw_center, ptr noundef null) #13
  call void @llvm.lifetime.end.p0(i64 24, ptr nonnull %2) #13
  ret void
}